target datalayout = "e-m:e-p270:32:32-p271:32:32-p272:64:64-i64:64-i128:128-f80:128-n8:16:32:64-S128"
target triple = "x86_64-pc-linux-gnu"

%struct.dom_html5_serialize_context = type { ptr, ptr, ptr }

@.str.28 = private unnamed_addr constant [4 x i8] c"&\C2\22\00", align 1
@.str.29 = private unnamed_addr constant [5 x i8] c"&\C2<>\00", align 1
@.str.30 = private unnamed_addr constant [6 x i8] c"&amp;\00", align 1
@.str.31 = private unnamed_addr constant [7 x i8] c"&nbsp;\00", align 1
@.str.32 = private unnamed_addr constant [7 x i8] c"&quot;\00", align 1
@.str.33 = private unnamed_addr constant [5 x i8] c"&lt;\00", align 1
@.str.34 = private unnamed_addr constant [5 x i8] c"&gt;\00", align 1

; Function Attrs: nounwind uwtable
define internal i32 @dom_html5_escape_string(ptr noundef %0, ptr noundef %1, i1 noundef zeroext %2) #0 {
  %4 = alloca i32, align 4
  %5 = alloca ptr, align 8
  %6 = alloca ptr, align 8
  %7 = alloca i8, align 1
  %8 = alloca ptr, align 8
  %9 = alloca ptr, align 8
  %10 = alloca i64, align 8
  store ptr %0, ptr %5, align 8
  store ptr %1, ptr %6, align 8
  %11 = zext i1 %2 to i8
  store i8 %11, ptr %7, align 1
  %12 = load ptr, ptr %6, align 8
  store ptr %12, ptr %8, align 8
  %13 = load i8, ptr %7, align 1
  %14 = trunc i8 %13 to i1
  %15 = select i1 %14, ptr @.str.28, ptr @.str.29
  store ptr %15, ptr %9, align 8
  br label %16

16:                                               ; preds = %256, %3
  %17 = load ptr, ptr %6, align 8
  %18 = load ptr, ptr %9, align 8
  %19 = call i64 @strcspn(ptr noundef %17, ptr noundef %18) #3
  store i64 %19, ptr %10, align 8
  %20 = load i64, ptr %10, align 8
  %21 = load ptr, ptr %6, align 8
  %22 = getelementptr inbounds i8, ptr %21, i64 %20
  store ptr %22, ptr %6, align 8
  %23 = load ptr, ptr %6, align 8
  %24 = load i8, ptr %23, align 1
  %25 = sext i8 %24 to i32
  %26 = icmp eq i32 %25, 0
  br i1 %26, label %27, label %28

27:                                               ; preds = %16
  br label %259

28:                                               ; preds = %16
  %29 = load ptr, ptr %6, align 8
  %30 = load i8, ptr %29, align 1
  %31 = sext i8 %30 to i32
  switch i32 %31, label %256 [
    i32 38, label %32
    i32 -62, label %75
    i32 34, label %127
    i32 60, label %170
    i32 62, label %213
  ]

32:                                               ; preds = %28
  br label %33

33:                                               ; preds = %32
  %34 = load ptr, ptr %5, align 8
  %35 = getelementptr inbounds %struct.dom_html5_serialize_context, ptr %34, i32 0, i32 1
  %36 = load ptr, ptr %35, align 8
  %37 = load ptr, ptr %5, align 8
  %38 = getelementptr inbounds %struct.dom_html5_serialize_context, ptr %37, i32 0, i32 2
  %39 = load ptr, ptr %38, align 8
  %40 = load ptr, ptr %8, align 8
  %41 = load ptr, ptr %6, align 8
  %42 = load ptr, ptr %8, align 8
  %43 = ptrtoint ptr %41 to i64
  %44 = ptrtoint ptr %42 to i64
  %45 = sub i64 %43, %44
  %46 = call i32 %36(ptr noundef %39, ptr noundef %40, i64 noundef %45)
  %47 = icmp ne i32 %46, 0
  %48 = xor i1 %47, true
  %49 = xor i1 %48, true
  %50 = zext i1 %49 to i32
  %51 = sext i32 %50 to i64
  %52 = icmp ne i64 %51, 0
  br i1 %52, label %53, label %54

53:                                               ; preds = %33
  store i32 -1, ptr %4, align 4
  br label %273

54:                                               ; preds = %33
  br label %55

55:                                               ; preds = %54
  br label %56

56:                                               ; preds = %55
  %57 = load ptr, ptr %5, align 8
  %58 = getelementptr inbounds %struct.dom_html5_serialize_context, ptr %57, i32 0, i32 1
  %59 = load ptr, ptr %58, align 8
  %60 = load ptr, ptr %5, align 8
  %61 = getelementptr inbounds %struct.dom_html5_serialize_context, ptr %60, i32 0, i32 2
  %62 = load ptr, ptr %61, align 8
  %63 = call i32 %59(ptr noundef %62, ptr noundef @.str.30, i64 noundef 5)
  %64 = icmp ne i32 %63, 0
  %65 = xor i1 %64, true
  %66 = xor i1 %65, true
  %67 = zext i1 %66 to i32
  %68 = sext i32 %67 to i64
  %69 = icmp ne i64 %68, 0
  br i1 %69, label %70, label %71

70:                                               ; preds = %56
  store i32 -1, ptr %4, align 4
  br label %273

71:                                               ; preds = %56
  br label %72

72:                                               ; preds = %71
  %73 = load ptr, ptr %6, align 8
  %74 = getelementptr inbounds i8, ptr %73, i64 1
  store ptr %74, ptr %8, align 8
  br label %256

75:                                               ; preds = %28
  %76 = load ptr, ptr %6, align 8
  %77 = getelementptr inbounds i8, ptr %76, i64 1
  %78 = load i8, ptr %77, align 1
  %79 = sext i8 %78 to i32
  %80 = icmp eq i32 %79, -96
  br i1 %80, label %81, label %126

81:                                               ; preds = %75
  br label %82

82:                                               ; preds = %81
  %83 = load ptr, ptr %5, align 8
  %84 = getelementptr inbounds %struct.dom_html5_serialize_context, ptr %83, i32 0, i32 1
  %85 = load ptr, ptr %84, align 8
  %86 = load ptr, ptr %5, align 8
  %87 = getelementptr inbounds %struct.dom_html5_serialize_context, ptr %86, i32 0, i32 2
  %88 = load ptr, ptr %87, align 8
  %89 = load ptr, ptr %8, align 8
  %90 = load ptr, ptr %6, align 8
  %91 = load ptr, ptr %8, align 8
  %92 = ptrtoint ptr %90 to i64
  %93 = ptrtoint ptr %91 to i64
  %94 = sub i64 %92, %93
  %95 = call i32 %85(ptr noundef %88, ptr noundef %89, i64 noundef %94)
  %96 = icmp ne i32 %95, 0
  %97 = xor i1 %96, true
  %98 = xor i1 %97, true
  %99 = zext i1 %98 to i32
  %100 = sext i32 %99 to i64
  %101 = icmp ne i64 %100, 0
  br i1 %101, label %102, label %103

102:                                              ; preds = %82
  store i32 -1, ptr %4, align 4
  br label %273

103:                                              ; preds = %82
  br label %104

104:                                              ; preds = %103
  br label %105

105:                                              ; preds = %104
  %106 = load ptr, ptr %5, align 8
  %107 = getelementptr inbounds %struct.dom_html5_serialize_context, ptr %106, i32 0, i32 1
  %108 = load ptr, ptr %107, align 8
  %109 = load ptr, ptr %5, align 8
  %110 = getelementptr inbounds %struct.dom_html5_serialize_context, ptr %109, i32 0, i32 2
  %111 = load ptr, ptr %110, align 8
  %112 = call i32 %108(ptr noundef %111, ptr noundef @.str.31, i64 noundef 6)
  %113 = icmp ne i32 %112, 0
  %114 = xor i1 %113, true
  %115 = xor i1 %114, true
  %116 = zext i1 %115 to i32
  %117 = sext i32 %116 to i64
  %118 = icmp ne i64 %117, 0
  br i1 %118, label %119, label %120

119:                                              ; preds = %105
  store i32 -1, ptr %4, align 4
  br label %273

120:                                              ; preds = %105
  br label %121

121:                                              ; preds = %120
  %122 = load ptr, ptr %6, align 8
  %123 = getelementptr inbounds i8, ptr %122, i32 1
  store ptr %123, ptr %6, align 8
  %124 = load ptr, ptr %6, align 8
  %125 = getelementptr inbounds i8, ptr %124, i64 1
  store ptr %125, ptr %8, align 8
  br label %126

126:                                              ; preds = %121, %75
  br label %256

127:                                              ; preds = %28
  br label %128

128:                                              ; preds = %127
  %129 = load ptr, ptr %5, align 8
  %130 = getelementptr inbounds %struct.dom_html5_serialize_context, ptr %129, i32 0, i32 1
  %131 = load ptr, ptr %130, align 8
  %132 = load ptr, ptr %5, align 8
  %133 = getelementptr inbounds %struct.dom_html5_serialize_context, ptr %132, i32 0, i32 2
  %134 = load ptr, ptr %133, align 8
  %135 = load ptr, ptr %8, align 8
  %136 = load ptr, ptr %6, align 8
  %137 = load ptr, ptr %8, align 8
  %138 = ptrtoint ptr %136 to i64
  %139 = ptrtoint ptr %137 to i64
  %140 = sub i64 %138, %139
  %141 = call i32 %131(ptr noundef %134, ptr noundef %135, i64 noundef %140)
  %142 = icmp ne i32 %141, 0
  %143 = xor i1 %142, true
  %144 = xor i1 %143, true
  %145 = zext i1 %144 to i32
  %146 = sext i32 %145 to i64
  %147 = icmp ne i64 %146, 0
  br i1 %147, label %148, label %149

148:                                              ; preds = %128
  store i32 -1, ptr %4, align 4
  br label %273

149:                                              ; preds = %128
  br label %150

150:                                              ; preds = %149
  br label %151

151:                                              ; preds = %150
  %152 = load ptr, ptr %5, align 8
  %153 = getelementptr inbounds %struct.dom_html5_serialize_context, ptr %152, i32 0, i32 1
  %154 = load ptr, ptr %153, align 8
  %155 = load ptr, ptr %5, align 8
  %156 = getelementptr inbounds %struct.dom_html5_serialize_context, ptr %155, i32 0, i32 2
  %157 = load ptr, ptr %156, align 8
  %158 = call i32 %154(ptr noundef %157, ptr noundef @.str.32, i64 noundef 6)
  %159 = icmp ne i32 %158, 0
  %160 = xor i1 %159, true
  %161 = xor i1 %160, true
  %162 = zext i1 %161 to i32
  %163 = sext i32 %162 to i64
  %164 = icmp ne i64 %163, 0
  br i1 %164, label %165, label %166

165:                                              ; preds = %151
  store i32 -1, ptr %4, align 4
  br label %273

166:                                              ; preds = %151
  br label %167

167:                                              ; preds = %166
  %168 = load ptr, ptr %6, align 8
  %169 = getelementptr inbounds i8, ptr %168, i64 1
  store ptr %169, ptr %8, align 8
  br label %256

170:                                              ; preds = %28
  br label %171

171:                                              ; preds = %170
  %172 = load ptr, ptr %5, align 8
  %173 = getelementptr inbounds %struct.dom_html5_serialize_context, ptr %172, i32 0, i32 1
  %174 = load ptr, ptr %173, align 8
  %175 = load ptr, ptr %5, align 8
  %176 = getelementptr inbounds %struct.dom_html5_serialize_context, ptr %175, i32 0, i32 2
  %177 = load ptr, ptr %176, align 8
  %178 = load ptr, ptr %8, align 8
  %179 = load ptr, ptr %6, align 8
  %180 = load ptr, ptr %8, align 8
  %181 = ptrtoint ptr %179 to i64
  %182 = ptrtoint ptr %180 to i64
  %183 = sub i64 %181, %182
  %184 = call i32 %174(ptr noundef %177, ptr noundef %178, i64 noundef %183)
  %185 = icmp ne i32 %184, 0
  %186 = xor i1 %185, true
  %187 = xor i1 %186, true
  %188 = zext i1 %187 to i32
  %189 = sext i32 %188 to i64
  %190 = icmp ne i64 %189, 0
  br i1 %190, label %191, label %192

191:                                              ; preds = %171
  store i32 -1, ptr %4, align 4
  br label %273

192:                                              ; preds = %171
  br label %193

193:                                              ; preds = %192
  br label %194

194:                                              ; preds = %193
  %195 = load ptr, ptr %5, align 8
  %196 = getelementptr inbounds %struct.dom_html5_serialize_context, ptr %195, i32 0, i32 1
  %197 = load ptr, ptr %196, align 8
  %198 = load ptr, ptr %5, align 8
  %199 = getelementptr inbounds %struct.dom_html5_serialize_context, ptr %198, i32 0, i32 2
  %200 = load ptr, ptr %199, align 8
  %201 = call i32 %197(ptr noundef %200, ptr noundef @.str.33, i64 noundef 4)
  %202 = icmp ne i32 %201, 0
  %203 = xor i1 %202, true
  %204 = xor i1 %203, true
  %205 = zext i1 %204 to i32
  %206 = sext i32 %205 to i64
  %207 = icmp ne i64 %206, 0
  br i1 %207, label %208, label %209

208:                                              ; preds = %194
  store i32 -1, ptr %4, align 4
  br label %273

209:                                              ; preds = %194
  br label %210

210:                                              ; preds = %209
  %211 = load ptr, ptr %6, align 8
  %212 = getelementptr inbounds i8, ptr %211, i64 1
  store ptr %212, ptr %8, align 8
  br label %256

213:                                              ; preds = %28
  br label %214

214:                                              ; preds = %213
  %215 = load ptr, ptr %5, align 8
  %216 = getelementptr inbounds %struct.dom_html5_serialize_context, ptr %215, i32 0, i32 1
  %217 = load ptr, ptr %216, align 8
  %218 = load ptr, ptr %5, align 8
  %219 = getelementptr inbounds %struct.dom_html5_serialize_context, ptr %218, i32 0, i32 2
  %220 = load ptr, ptr %219, align 8
  %221 = load ptr, ptr %8, align 8
  %222 = load ptr, ptr %6, align 8
  %223 = load ptr, ptr %8, align 8
  %224 = ptrtoint ptr %222 to i64
  %225 = ptrtoint ptr %223 to i64
  %226 = sub i64 %224, %225
  %227 = call i32 %217(ptr noundef %220, ptr noundef %221, i64 noundef %226)
  %228 = icmp ne i32 %227, 0
  %229 = xor i1 %228, true
  %230 = xor i1 %229, true
  %231 = zext i1 %230 to i32
  %232 = sext i32 %231 to i64
  %233 = icmp ne i64 %232, 0
  br i1 %233, label %234, label %235

234:                                              ; preds = %214
  store i32 -1, ptr %4, align 4
  br label %273

235:                                              ; preds = %214
  br label %236

236:                                              ; preds = %235
  br label %237

237:                                              ; preds = %236
  %238 = load ptr, ptr %5, align 8
  %239 = getelementptr inbounds %struct.dom_html5_serialize_context, ptr %238, i32 0, i32 1
  %240 = load ptr, ptr %239, align 8
  %241 = load ptr, ptr %5, align 8
  %242 = getelementptr inbounds %struct.dom_html5_serialize_context, ptr %241, i32 0, i32 2
  %243 = load ptr, ptr %242, align 8
  %244 = call i32 %240(ptr noundef %243, ptr noundef @.str.34, i64 noundef 4)
  %245 = icmp ne i32 %244, 0
  %246 = xor i1 %245, true
  %247 = xor i1 %246, true
  %248 = zext i1 %247 to i32
  %249 = sext i32 %248 to i64
  %250 = icmp ne i64 %249, 0
  br i1 %250, label %251, label %252

251:                                              ; preds = %237
  store i32 -1, ptr %4, align 4
  br label %273

252:                                              ; preds = %237
  br label %253

253:                                              ; preds = %252
  %254 = load ptr, ptr %6, align 8
  %255 = getelementptr inbounds i8, ptr %254, i64 1
  store ptr %255, ptr %8, align 8
  br label %256

256:                                              ; preds = %253, %210, %167, %126, %72, %28
  %257 = load ptr, ptr %6, align 8
  %258 = getelementptr inbounds i8, ptr %257, i32 1
  store ptr %258, ptr %6, align 8
  br label %16

259:                                              ; preds = %27
  %260 = load ptr, ptr %5, align 8
  %261 = getelementptr inbounds %struct.dom_html5_serialize_context, ptr %260, i32 0, i32 1
  %262 = load ptr, ptr %261, align 8
  %263 = load ptr, ptr %5, align 8
  %264 = getelementptr inbounds %struct.dom_html5_serialize_context, ptr %263, i32 0, i32 2
  %265 = load ptr, ptr %264, align 8
  %266 = load ptr, ptr %8, align 8
  %267 = load ptr, ptr %6, align 8
  %268 = load ptr, ptr %8, align 8
  %269 = ptrtoint ptr %267 to i64
  %270 = ptrtoint ptr %268 to i64
  %271 = sub i64 %269, %270
  %272 = call i32 %262(ptr noundef %265, ptr noundef %266, i64 noundef %271)
  store i32 %272, ptr %4, align 4
  br label %273

273:                                              ; preds = %259, %251, %234, %208, %191, %165, %148, %119, %102, %70, %53
  %274 = load i32, ptr %4, align 4
  ret i32 %274
}