; Function Attrs: nounwind uwtable
define internal fastcc i32 @dom_html5_escape_string(ptr nocapture noundef readonly %0, ptr noundef %1, i1 noundef zeroext %2) unnamed_addr #0 {
  %4 = select i1 %2, ptr @.str.28, ptr @.str.29
  %5 = getelementptr inbounds i8, ptr %0, i64 8
  %6 = getelementptr inbounds i8, ptr %0, i64 16
  br label %7

7:                                                ; preds = %80, %3
  %.057 = phi ptr [ %1, %3 ], [ %.158, %80 ]
  %.056 = phi ptr [ %1, %3 ], [ %81, %80 ]
  %8 = tail call i64 @strcspn(ptr noundef %.056, ptr noundef nonnull %4) #5
  %9 = getelementptr inbounds i8, ptr %.056, i64 %8
  %10 = load i8, ptr %9, align 1
  switch i8 %10, label %80 [
    i8 0, label %82
    i8 38, label %11
    i8 -62, label %24
    i8 34, label %41
    i8 60, label %54
    i8 62, label %67
  ]

11:                                               ; preds = %7
  %12 = load ptr, ptr %5, align 8
  %13 = load ptr, ptr %6, align 8
  %14 = ptrtoint ptr %9 to i64
  %15 = ptrtoint ptr %.057 to i64
  %16 = sub i64 %14, %15
  %17 = tail call i32 %12(ptr noundef %13, ptr noundef %.057, i64 noundef %16) #4
  %.not67 = icmp eq i32 %17, 0
  br i1 %.not67, label %18, label %.loopexit

18:                                               ; preds = %11
  %19 = load ptr, ptr %5, align 8
  %20 = load ptr, ptr %6, align 8
  %21 = tail call i32 %19(ptr noundef %20, ptr noundef nonnull @.str.30, i64 noundef 5) #4
  %.not68 = icmp eq i32 %21, 0
  br i1 %.not68, label %22, label %.loopexit

22:                                               ; preds = %18
  %23 = getelementptr inbounds i8, ptr %9, i64 1
  br label %80

24:                                               ; preds = %7
  %25 = getelementptr inbounds i8, ptr %9, i64 1
  %26 = load i8, ptr %25, align 1
  %27 = icmp eq i8 %26, -96
  br i1 %27, label %28, label %80

28:                                               ; preds = %24
  %29 = load ptr, ptr %5, align 8
  %30 = load ptr, ptr %6, align 8
  %31 = ptrtoint ptr %9 to i64
  %32 = ptrtoint ptr %.057 to i64
  %33 = sub i64 %31, %32
  %34 = tail call i32 %29(ptr noundef %30, ptr noundef %.057, i64 noundef %33) #4
  %.not65 = icmp eq i32 %34, 0
  br i1 %.not65, label %35, label %.loopexit

35:                                               ; preds = %28
  %36 = load ptr, ptr %5, align 8
  %37 = load ptr, ptr %6, align 8
  %38 = tail call i32 %36(ptr noundef %37, ptr noundef nonnull @.str.31, i64 noundef 6) #4
  %.not66 = icmp eq i32 %38, 0
  br i1 %.not66, label %39, label %.loopexit

39:                                               ; preds = %35
  %40 = getelementptr inbounds i8, ptr %9, i64 2
  br label %80

41:                                               ; preds = %7
  %42 = load ptr, ptr %5, align 8
  %43 = load ptr, ptr %6, align 8
  %44 = ptrtoint ptr %9 to i64
  %45 = ptrtoint ptr %.057 to i64
  %46 = sub i64 %44, %45
  %47 = tail call i32 %42(ptr noundef %43, ptr noundef %.057, i64 noundef %46) #4
  %.not63 = icmp eq i32 %47, 0
  br i1 %.not63, label %48, label %.loopexit

48:                                               ; preds = %41
  %49 = load ptr, ptr %5, align 8
  %50 = load ptr, ptr %6, align 8
  %51 = tail call i32 %49(ptr noundef %50, ptr noundef nonnull @.str.32, i64 noundef 6) #4
  %.not64 = icmp eq i32 %51, 0
  br i1 %.not64, label %52, label %.loopexit

52:                                               ; preds = %48
  %53 = getelementptr inbounds i8, ptr %9, i64 1
  br label %80

54:                                               ; preds = %7
  %55 = load ptr, ptr %5, align 8
  %56 = load ptr, ptr %6, align 8
  %57 = ptrtoint ptr %9 to i64
  %58 = ptrtoint ptr %.057 to i64
  %59 = sub i64 %57, %58
  %60 = tail call i32 %55(ptr noundef %56, ptr noundef %.057, i64 noundef %59) #4
  %.not61 = icmp eq i32 %60, 0
  br i1 %.not61, label %61, label %.loopexit

61:                                               ; preds = %54
  %62 = load ptr, ptr %5, align 8
  %63 = load ptr, ptr %6, align 8
  %64 = tail call i32 %62(ptr noundef %63, ptr noundef nonnull @.str.33, i64 noundef 4) #4
  %.not62 = icmp eq i32 %64, 0
  br i1 %.not62, label %65, label %.loopexit

65:                                               ; preds = %61
  %66 = getelementptr inbounds i8, ptr %9, i64 1
  br label %80

67:                                               ; preds = %7
  %68 = load ptr, ptr %5, align 8
  %69 = load ptr, ptr %6, align 8
  %70 = ptrtoint ptr %9 to i64
  %71 = ptrtoint ptr %.057 to i64
  %72 = sub i64 %70, %71
  %73 = tail call i32 %68(ptr noundef %69, ptr noundef %.057, i64 noundef %72) #4
  %.not = icmp eq i32 %73, 0
  br i1 %.not, label %74, label %.loopexit

74:                                               ; preds = %67
  %75 = load ptr, ptr %5, align 8
  %76 = load ptr, ptr %6, align 8
  %77 = tail call i32 %75(ptr noundef %76, ptr noundef nonnull @.str.34, i64 noundef 4) #4
  %.not60 = icmp eq i32 %77, 0
  br i1 %.not60, label %78, label %.loopexit

78:                                               ; preds = %74
  %79 = getelementptr inbounds i8, ptr %9, i64 1
  br label %80

80:                                               ; preds = %7, %24, %39, %78, %65, %52, %22
  %.158 = phi ptr [ %79, %78 ], [ %66, %65 ], [ %53, %52 ], [ %40, %39 ], [ %.057, %24 ], [ %23, %22 ], [ %.057, %7 ]
  %.1 = phi ptr [ %9, %78 ], [ %9, %65 ], [ %9, %52 ], [ %25, %39 ], [ %9, %24 ], [ %9, %22 ], [ %9, %7 ]
  %81 = getelementptr inbounds i8, ptr %.1, i64 1
  br label %7

82:                                               ; preds = %7
  %83 = load ptr, ptr %5, align 8
  %84 = load ptr, ptr %6, align 8
  %85 = ptrtoint ptr %9 to i64
  %86 = ptrtoint ptr %.057 to i64
  %87 = sub i64 %85, %86
  %88 = tail call i32 %83(ptr noundef %84, ptr noundef %.057, i64 noundef %87) #4
  br label %.loopexit

.loopexit:                                        ; preds = %74, %67, %61, %54, %48, %41, %35, %28, %18, %11, %82
  %.0 = phi i32 [ %88, %82 ], [ -1, %11 ], [ -1, %18 ], [ -1, %28 ], [ -1, %35 ], [ -1, %41 ], [ -1, %48 ], [ -1, %54 ], [ -1, %61 ], [ -1, %67 ], [ -1, %74 ]
  ret i32 %.0
}